target datalayout = "e-m:e-p270:32:32-p271:32:32-p272:64:64-i64:64-i128:128-f80:128-n8:16:32:64-S128"
target triple = "x86_64-pc-linux-gnu"

; Function Attrs: nounwind uwtable
define void @ff_double_threshold(i32 noundef %0, i32 noundef %1, i32 noundef %2, i32 noundef %3, ptr noundef %4, i32 noundef %5, ptr noundef %6, i32 noundef %7) #0 {
  %9 = alloca i32, align 4
  %10 = alloca i32, align 4
  %11 = alloca i32, align 4
  %12 = alloca i32, align 4
  %13 = alloca ptr, align 8
  %14 = alloca i32, align 4
  %15 = alloca ptr, align 8
  %16 = alloca i32, align 4
  %17 = alloca i32, align 4
  %18 = alloca i32, align 4
  store i32 %0, ptr %9, align 4, !tbaa !4
  store i32 %1, ptr %10, align 4, !tbaa !4
  store i32 %2, ptr %11, align 4, !tbaa !4
  store i32 %3, ptr %12, align 4, !tbaa !4
  store ptr %4, ptr %13, align 8, !tbaa !11
  store i32 %5, ptr %14, align 4, !tbaa !4
  store ptr %6, ptr %15, align 8, !tbaa !11
  store i32 %7, ptr %16, align 4, !tbaa !4
  call void @llvm.lifetime.start.p0(i64 4, ptr %17) #4
  call void @llvm.lifetime.start.p0(i64 4, ptr %18) #4
  store i32 0, ptr %18, align 4, !tbaa !4
  br label %19

19:                                               ; preds = %193, %8
  %20 = load i32, ptr %18, align 4, !tbaa !4
  %21 = load i32, ptr %12, align 4, !tbaa !4
  %22 = icmp slt i32 %20, %21
  br i1 %22, label %23, label %196

23:                                               ; preds = %19
  store i32 0, ptr %17, align 4, !tbaa !4
  br label %24

24:                                               ; preds = %181, %23
  %25 = load i32, ptr %17, align 4, !tbaa !4
  %26 = load i32, ptr %11, align 4, !tbaa !4
  %27 = icmp slt i32 %25, %26
  br i1 %27, label %28, label %184

28:                                               ; preds = %24
  %29 = load ptr, ptr %15, align 8, !tbaa !11
  %30 = load i32, ptr %17, align 4, !tbaa !4
  %31 = sext i32 %30 to i64
  %32 = getelementptr inbounds i8, ptr %29, i64 %31
  %33 = load i8, ptr %32, align 1, !tbaa !13
  %34 = zext i8 %33 to i32
  %35 = load i32, ptr %10, align 4, !tbaa !4
  %36 = icmp sgt i32 %34, %35
  br i1 %36, label %37, label %47

37:                                               ; preds = %28
  %38 = load ptr, ptr %15, align 8, !tbaa !11
  %39 = load i32, ptr %17, align 4, !tbaa !4
  %40 = sext i32 %39 to i64
  %41 = getelementptr inbounds i8, ptr %38, i64 %40
  %42 = load i8, ptr %41, align 1, !tbaa !13
  %43 = load ptr, ptr %13, align 8, !tbaa !11
  %44 = load i32, ptr %17, align 4, !tbaa !4
  %45 = sext i32 %44 to i64
  %46 = getelementptr inbounds i8, ptr %43, i64 %45
  store i8 %42, ptr %46, align 1, !tbaa !13
  br label %181

47:                                               ; preds = %28
  %48 = load i32, ptr %17, align 4, !tbaa !4
  %49 = icmp ne i32 %48, 0
  br i1 %49, label %50, label %175

50:                                               ; preds = %47
  %51 = load i32, ptr %17, align 4, !tbaa !4
  %52 = load i32, ptr %11, align 4, !tbaa !4
  %53 = sub nsw i32 %52, 1
  %54 = icmp eq i32 %51, %53
  br i1 %54, label %175, label %55

55:                                               ; preds = %50
  %56 = load i32, ptr %18, align 4, !tbaa !4
  %57 = icmp ne i32 %56, 0
  br i1 %57, label %58, label %175

58:                                               ; preds = %55
  %59 = load i32, ptr %18, align 4, !tbaa !4
  %60 = load i32, ptr %12, align 4, !tbaa !4
  %61 = sub nsw i32 %60, 1
  %62 = icmp eq i32 %59, %61
  br i1 %62, label %175, label %63

63:                                               ; preds = %58
  %64 = load ptr, ptr %15, align 8, !tbaa !11
  %65 = load i32, ptr %17, align 4, !tbaa !4
  %66 = sext i32 %65 to i64
  %67 = getelementptr inbounds i8, ptr %64, i64 %66
  %68 = load i8, ptr %67, align 1, !tbaa !13
  %69 = zext i8 %68 to i32
  %70 = load i32, ptr %9, align 4, !tbaa !4
  %71 = icmp sgt i32 %69, %70
  br i1 %71, label %72, label %175

72:                                               ; preds = %63
  %73 = load ptr, ptr %15, align 8, !tbaa !11
  %74 = load i32, ptr %16, align 4, !tbaa !4
  %75 = sub nsw i32 0, %74
  %76 = load i32, ptr %17, align 4, !tbaa !4
  %77 = add nsw i32 %75, %76
  %78 = sub nsw i32 %77, 1
  %79 = sext i32 %78 to i64
  %80 = getelementptr inbounds i8, ptr %73, i64 %79
  %81 = load i8, ptr %80, align 1, !tbaa !13
  %82 = zext i8 %81 to i32
  %83 = load i32, ptr %10, align 4, !tbaa !4
  %84 = icmp sgt i32 %82, %83
  br i1 %84, label %165, label %85

85:                                               ; preds = %72
  %86 = load ptr, ptr %15, align 8, !tbaa !11
  %87 = load i32, ptr %16, align 4, !tbaa !4
  %88 = sub nsw i32 0, %87
  %89 = load i32, ptr %17, align 4, !tbaa !4
  %90 = add nsw i32 %88, %89
  %91 = sext i32 %90 to i64
  %92 = getelementptr inbounds i8, ptr %86, i64 %91
  %93 = load i8, ptr %92, align 1, !tbaa !13
  %94 = zext i8 %93 to i32
  %95 = load i32, ptr %10, align 4, !tbaa !4
  %96 = icmp sgt i32 %94, %95
  br i1 %96, label %165, label %97

97:                                               ; preds = %85
  %98 = load ptr, ptr %15, align 8, !tbaa !11
  %99 = load i32, ptr %16, align 4, !tbaa !4
  %100 = sub nsw i32 0, %99
  %101 = load i32, ptr %17, align 4, !tbaa !4
  %102 = add nsw i32 %100, %101
  %103 = add nsw i32 %102, 1
  %104 = sext i32 %103 to i64
  %105 = getelementptr inbounds i8, ptr %98, i64 %104
  %106 = load i8, ptr %105, align 1, !tbaa !13
  %107 = zext i8 %106 to i32
  %108 = load i32, ptr %10, align 4, !tbaa !4
  %109 = icmp sgt i32 %107, %108
  br i1 %109, label %165, label %110

110:                                              ; preds = %97
  %111 = load ptr, ptr %15, align 8, !tbaa !11
  %112 = load i32, ptr %17, align 4, !tbaa !4
  %113 = sub nsw i32 %112, 1
  %114 = sext i32 %113 to i64
  %115 = getelementptr inbounds i8, ptr %111, i64 %114
  %116 = load i8, ptr %115, align 1, !tbaa !13
  %117 = zext i8 %116 to i32
  %118 = load i32, ptr %10, align 4, !tbaa !4
  %119 = icmp sgt i32 %117, %118
  br i1 %119, label %165, label %120

120:                                              ; preds = %110
  %121 = load ptr, ptr %15, align 8, !tbaa !11
  %122 = load i32, ptr %17, align 4, !tbaa !4
  %123 = add nsw i32 %122, 1
  %124 = sext i32 %123 to i64
  %125 = getelementptr inbounds i8, ptr %121, i64 %124
  %126 = load i8, ptr %125, align 1, !tbaa !13
  %127 = zext i8 %126 to i32
  %128 = load i32, ptr %10, align 4, !tbaa !4
  %129 = icmp sgt i32 %127, %128
  br i1 %129, label %165, label %130

130:                                              ; preds = %120
  %131 = load ptr, ptr %15, align 8, !tbaa !11
  %132 = load i32, ptr %16, align 4, !tbaa !4
  %133 = load i32, ptr %17, align 4, !tbaa !4
  %134 = add nsw i32 %132, %133
  %135 = sub nsw i32 %134, 1
  %136 = sext i32 %135 to i64
  %137 = getelementptr inbounds i8, ptr %131, i64 %136
  %138 = load i8, ptr %137, align 1, !tbaa !13
  %139 = zext i8 %138 to i32
  %140 = load i32, ptr %10, align 4, !tbaa !4
  %141 = icmp sgt i32 %139, %140
  br i1 %141, label %165, label %142

142:                                              ; preds = %130
  %143 = load ptr, ptr %15, align 8, !tbaa !11
  %144 = load i32, ptr %16, align 4, !tbaa !4
  %145 = load i32, ptr %17, align 4, !tbaa !4
  %146 = add nsw i32 %144, %145
  %147 = sext i32 %146 to i64
  %148 = getelementptr inbounds i8, ptr %143, i64 %147
  %149 = load i8, ptr %148, align 1, !tbaa !13
  %150 = zext i8 %149 to i32
  %151 = load i32, ptr %10, align 4, !tbaa !4
  %152 = icmp sgt i32 %150, %151
  br i1 %152, label %165, label %153

153:                                              ; preds = %142
  %154 = load ptr, ptr %15, align 8, !tbaa !11
  %155 = load i32, ptr %16, align 4, !tbaa !4
  %156 = load i32, ptr %17, align 4, !tbaa !4
  %157 = add nsw i32 %155, %156
  %158 = add nsw i32 %157, 1
  %159 = sext i32 %158 to i64
  %160 = getelementptr inbounds i8, ptr %154, i64 %159
  %161 = load i8, ptr %160, align 1, !tbaa !13
  %162 = zext i8 %161 to i32
  %163 = load i32, ptr %10, align 4, !tbaa !4
  %164 = icmp sgt i32 %162, %163
  br i1 %164, label %165, label %175

165:                                              ; preds = %153, %142, %130, %120, %110, %97, %85, %72
  %166 = load ptr, ptr %15, align 8, !tbaa !11
  %167 = load i32, ptr %17, align 4, !tbaa !4
  %168 = sext i32 %167 to i64
  %169 = getelementptr inbounds i8, ptr %166, i64 %168
  %170 = load i8, ptr %169, align 1, !tbaa !13
  %171 = load ptr, ptr %13, align 8, !tbaa !11
  %172 = load i32, ptr %17, align 4, !tbaa !4
  %173 = sext i32 %172 to i64
  %174 = getelementptr inbounds i8, ptr %171, i64 %173
  store i8 %170, ptr %174, align 1, !tbaa !13
  br label %180

175:                                              ; preds = %153, %63, %58, %55, %50, %47
  %176 = load ptr, ptr %13, align 8, !tbaa !11
  %177 = load i32, ptr %17, align 4, !tbaa !4
  %178 = sext i32 %177 to i64
  %179 = getelementptr inbounds i8, ptr %176, i64 %178
  store i8 0, ptr %179, align 1, !tbaa !13
  br label %180

180:                                              ; preds = %175, %165
  br label %181

181:                                              ; preds = %180, %37
  %182 = load i32, ptr %17, align 4, !tbaa !4
  %183 = add nsw i32 %182, 1
  store i32 %183, ptr %17, align 4, !tbaa !4
  br label %24, !llvm.loop !35

184:                                              ; preds = %24
  %185 = load i32, ptr %14, align 4, !tbaa !4
  %186 = load ptr, ptr %13, align 8, !tbaa !11
  %187 = sext i32 %185 to i64
  %188 = getelementptr inbounds i8, ptr %186, i64 %187
  store ptr %188, ptr %13, align 8, !tbaa !11
  %189 = load i32, ptr %16, align 4, !tbaa !4
  %190 = load ptr, ptr %15, align 8, !tbaa !11
  %191 = sext i32 %189 to i64
  %192 = getelementptr inbounds i8, ptr %190, i64 %191
  store ptr %192, ptr %15, align 8, !tbaa !11
  br label %193

193:                                              ; preds = %184
  %194 = load i32, ptr %18, align 4, !tbaa !4
  %195 = add nsw i32 %194, 1
  store i32 %195, ptr %18, align 4, !tbaa !4
  br label %19, !llvm.loop !36

196:                                              ; preds = %19
  call void @llvm.lifetime.end.p0(i64 4, ptr %18) #4
  call void @llvm.lifetime.end.p0(i64 4, ptr %17) #4
  ret void
}