; Function Attrs: nofree norecurse nosync nounwind memory(argmem: readwrite) uwtable
define void @ff_double_threshold(i32 noundef %0, i32 noundef %1, i32 noundef %2, i32 noundef %3, ptr noundef writeonly captures(none) %4, i32 noundef %5, ptr noundef readonly captures(none) %6, i32 noundef %7) local_unnamed_addr #0 {
  %9 = icmp sgt i32 %3, 0
  br i1 %9, label %.preheader.lr.ph, label %._crit_edge88

.preheader.lr.ph:                                 ; preds = %8
  %10 = icmp sgt i32 %2, 0
  %11 = add nsw i32 %3, -1
  %12 = sext i32 %5 to i64
  %13 = sext i32 %7 to i64
  br i1 %10, label %.preheader.us.preheader, label %._crit_edge88

.preheader.us.preheader:                          ; preds = %.preheader.lr.ph
  %14 = add nsw i32 %2, -1
  %15 = zext nneg i32 %14 to i64
  %wide.trip.count = zext nneg i32 %2 to i64
  %wide.trip.count99 = zext nneg i32 %2 to i64
  br label %.preheader.us

.preheader.us:                                    ; preds = %.preheader.us.preheader, %._crit_edge.us
  %.087.us = phi i32 [ %72, %._crit_edge.us ], [ 0, %.preheader.us.preheader ]
  %.06385.us = phi ptr [ %70, %._crit_edge.us ], [ %4, %.preheader.us.preheader ]
  %.06483.us = phi ptr [ %71, %._crit_edge.us ], [ %6, %.preheader.us.preheader ]
  %16 = icmp ne i32 %.087.us, 0
  %17 = icmp ne i32 %.087.us, %11
  %.fr.us = freeze i1 %17
  %18 = and i1 %.fr.us, %16
  br i1 %18, label %.lr.ph.split.us92.preheader, label %.lr.ph.split.us.us

.lr.ph.split.us92.preheader:                      ; preds = %.preheader.us
  %invariant.gep = getelementptr i8, ptr %.06483.us, i64 %13
  br label %.lr.ph.split.us92

.lr.ph.split.us92:                                ; preds = %.lr.ph.split.us92.preheader, %68
  %indvars.iv96 = phi i64 [ 0, %.lr.ph.split.us92.preheader ], [ %indvars.iv.next97, %68 ]
  %19 = getelementptr inbounds nuw i8, ptr %.06483.us, i64 %indvars.iv96
  %20 = load i8, ptr %19, align 1, !tbaa !4
  %21 = zext i8 %20 to i32
  %22 = icmp slt i32 %1, %21
  br i1 %22, label %68, label %23

23:                                               ; preds = %.lr.ph.split.us92
  %.not.us90 = icmp eq i64 %indvars.iv96, 0
  br i1 %.not.us90, label %67, label %24

24:                                               ; preds = %23
  %25 = icmp ne i64 %indvars.iv96, %15
  %26 = icmp slt i32 %0, %21
  %or.cond71.us = and i1 %25, %26
  br i1 %or.cond71.us, label %27, label %67

27:                                               ; preds = %24
  %28 = sub nsw i64 %indvars.iv96, %13
  %29 = getelementptr i8, ptr %.06483.us, i64 %28
  %30 = getelementptr i8, ptr %29, i64 -1
  %31 = load i8, ptr %30, align 1, !tbaa !4
  %32 = zext i8 %31 to i32
  %33 = icmp samesign ult i32 %1, %32
  br i1 %33, label %68, label %34

34:                                               ; preds = %27
  %35 = load i8, ptr %29, align 1, !tbaa !4
  %36 = zext i8 %35 to i32
  %37 = icmp samesign ult i32 %1, %36
  br i1 %37, label %68, label %38

38:                                               ; preds = %34
  %39 = getelementptr i8, ptr %29, i64 1
  %40 = load i8, ptr %39, align 1, !tbaa !4
  %41 = zext i8 %40 to i32
  %42 = icmp samesign ult i32 %1, %41
  br i1 %42, label %68, label %43

43:                                               ; preds = %38
  %44 = getelementptr i8, ptr %19, i64 -1
  %45 = load i8, ptr %44, align 1, !tbaa !4
  %46 = zext i8 %45 to i32
  %47 = icmp samesign ult i32 %1, %46
  br i1 %47, label %68, label %48

48:                                               ; preds = %43
  %49 = getelementptr inbounds nuw i8, ptr %19, i64 1
  %50 = load i8, ptr %49, align 1, !tbaa !4
  %51 = zext i8 %50 to i32
  %52 = icmp samesign ult i32 %1, %51
  br i1 %52, label %68, label %53

53:                                               ; preds = %48
  %gep = getelementptr i8, ptr %invariant.gep, i64 %indvars.iv96
  %54 = getelementptr i8, ptr %gep, i64 -1
  %55 = load i8, ptr %54, align 1, !tbaa !4
  %56 = zext i8 %55 to i32
  %57 = icmp samesign ult i32 %1, %56
  br i1 %57, label %68, label %58

58:                                               ; preds = %53
  %59 = load i8, ptr %gep, align 1, !tbaa !4
  %60 = zext i8 %59 to i32
  %61 = icmp samesign ult i32 %1, %60
  br i1 %61, label %68, label %62

62:                                               ; preds = %58
  %63 = getelementptr i8, ptr %gep, i64 1
  %64 = load i8, ptr %63, align 1, !tbaa !4
  %65 = zext i8 %64 to i32
  %66 = icmp samesign ult i32 %1, %65
  br i1 %66, label %68, label %67

67:                                               ; preds = %62, %24, %23
  br label %68

68:                                               ; preds = %.lr.ph.split.us92, %27, %34, %38, %43, %48, %53, %58, %62, %67
  %.sink103 = phi i8 [ 0, %67 ], [ %20, %62 ], [ %20, %58 ], [ %20, %53 ], [ %20, %48 ], [ %20, %43 ], [ %20, %38 ], [ %20, %34 ], [ %20, %27 ], [ %20, %.lr.ph.split.us92 ]
  %69 = getelementptr inbounds nuw i8, ptr %.06385.us, i64 %indvars.iv96
  store i8 %.sink103, ptr %69, align 1, !tbaa !4
  %indvars.iv.next97 = add nuw nsw i64 %indvars.iv96, 1
  %exitcond100.not = icmp eq i64 %indvars.iv.next97, %wide.trip.count99
  br i1 %exitcond100.not, label %._crit_edge.us, label %.lr.ph.split.us92, !llvm.loop !28

._crit_edge.us:                                   ; preds = %.lr.ph.split.us.us, %68
  %70 = getelementptr inbounds i8, ptr %.06385.us, i64 %12
  %71 = getelementptr inbounds i8, ptr %.06483.us, i64 %13
  %72 = add nuw nsw i32 %.087.us, 1
  %exitcond101.not = icmp eq i32 %72, %3
  br i1 %exitcond101.not, label %._crit_edge88, label %.preheader.us, !llvm.loop !29

.lr.ph.split.us.us:                               ; preds = %.preheader.us, %.lr.ph.split.us.us
  %indvars.iv = phi i64 [ %indvars.iv.next, %.lr.ph.split.us.us ], [ 0, %.preheader.us ]
  %73 = getelementptr inbounds nuw i8, ptr %.06483.us, i64 %indvars.iv
  %74 = load i8, ptr %73, align 1, !tbaa !4
  %75 = zext i8 %74 to i32
  %76 = icmp slt i32 %1, %75
  %spec.select = select i1 %76, i8 %74, i8 0
  %77 = getelementptr inbounds nuw i8, ptr %.06385.us, i64 %indvars.iv
  store i8 %spec.select, ptr %77, align 1, !tbaa !4
  %indvars.iv.next = add nuw nsw i64 %indvars.iv, 1
  %exitcond.not = icmp eq i64 %indvars.iv.next, %wide.trip.count
  br i1 %exitcond.not, label %._crit_edge.us, label %.lr.ph.split.us.us, !llvm.loop !28

._crit_edge88:                                    ; preds = %._crit_edge.us, %.preheader.lr.ph, %8
  ret void
}